; Function Attrs: mustprogress nounwind uwtable
define hidden noundef i64 @_ZNK20ParallelScavengeHeap21unsafe_max_tlab_allocEP6Thread(ptr nocapture nonnull readnone align 8 %0, ptr noundef %1) unnamed_addr #0 align 2 {
  %3 = load ptr, ptr @_ZN20ParallelScavengeHeap10_young_genE, align 8
  %4 = getelementptr inbounds i8, ptr %3, i64 32
  %5 = load ptr, ptr %4, align 8
  %6 = load ptr, ptr %5, align 8
  %7 = getelementptr inbounds i8, ptr %6, i64 112
  %8 = load ptr, ptr %7, align 8
  %9 = tail call noundef i64 %8(ptr noundef nonnull align 8 dereferenceable(56) %5, ptr noundef %1) #15
  ret i64 %9
}